target datalayout = "e-m:e-p270:32:32-p271:32:32-p272:64:64-i64:64-i128:128-f80:128-n8:16:32:64-S128"
target triple = "x86_64-pc-linux-gnu"

%struct.H5D_chunk_rec_t = type { [33 x i64], i32, i32, i64 }
%struct.H5D_bt2_ctx_t = type { i32, i64, i64, i32, ptr }

@.str.7 = private unnamed_addr constant [13 x i8] c"%*s%-*s %lu\0A\00", align 1
@.str.8 = private unnamed_addr constant [1 x i8] zeroinitializer, align 1
@.str.9 = private unnamed_addr constant [15 x i8] c"Chunk address:\00", align 1
@.str.10 = private unnamed_addr constant [10 x i8] c"%*s%-*s {\00", align 1
@.str.11 = private unnamed_addr constant [16 x i8] c"Logical offset:\00", align 1
@.str.12 = private unnamed_addr constant [6 x i8] c"%s%lu\00", align 1
@.str.13 = private unnamed_addr constant [3 x i8] c", \00", align 1
@.str.14 = private unnamed_addr constant [3 x i8] c"}\0A\00", align 1

; Function Attrs: nounwind uwtable
define internal i32 @H5D__bt2_unfilt_debug(ptr noundef %0, i32 noundef %1, i32 noundef %2, ptr noundef %3, ptr noundef %4) #0 {
  %6 = alloca ptr, align 8
  %7 = alloca i32, align 4
  %8 = alloca i32, align 4
  %9 = alloca ptr, align 8
  %10 = alloca ptr, align 8
  %11 = alloca ptr, align 8
  %12 = alloca ptr, align 8
  %13 = alloca i32, align 4
  store ptr %0, ptr %6, align 8
  store i32 %1, ptr %7, align 4
  store i32 %2, ptr %8, align 4
  store ptr %3, ptr %9, align 8
  store ptr %4, ptr %10, align 8
  %14 = load ptr, ptr %9, align 8
  store ptr %14, ptr %11, align 8
  %15 = load ptr, ptr %10, align 8
  store ptr %15, ptr %12, align 8
  %16 = load ptr, ptr %6, align 8
  %17 = load i32, ptr %7, align 4
  %18 = load i32, ptr %8, align 4
  %19 = load ptr, ptr %11, align 8
  %20 = getelementptr inbounds %struct.H5D_chunk_rec_t, ptr %19, i32 0, i32 3
  %21 = load i64, ptr %20, align 8
  %22 = call i32 (ptr, ptr, ...) @fprintf(ptr noundef %16, ptr noundef @.str.7, i32 noundef %17, ptr noundef @.str.8, i32 noundef %18, ptr noundef @.str.9, i64 noundef %21) #5
  %23 = load ptr, ptr %6, align 8
  %24 = load i32, ptr %7, align 4
  %25 = load i32, ptr %8, align 4
  %26 = call i32 (ptr, ptr, ...) @fprintf(ptr noundef %23, ptr noundef @.str.10, i32 noundef %24, ptr noundef @.str.8, i32 noundef %25, ptr noundef @.str.11) #5
  store i32 0, ptr %13, align 4
  br label %27

27:                                               ; preds = %54, %5
  %28 = load i32, ptr %13, align 4
  %29 = load ptr, ptr %12, align 8
  %30 = getelementptr inbounds %struct.H5D_bt2_ctx_t, ptr %29, i32 0, i32 3
  %31 = load i32, ptr %30, align 8
  %32 = icmp ult i32 %28, %31
  br i1 %32, label %33, label %57

33:                                               ; preds = %27
  %34 = load ptr, ptr %6, align 8
  %35 = load i32, ptr %13, align 4
  %36 = icmp ne i32 %35, 0
  %37 = select i1 %36, ptr @.str.13, ptr @.str.8
  %38 = load ptr, ptr %11, align 8
  %39 = getelementptr inbounds %struct.H5D_chunk_rec_t, ptr %38, i32 0, i32 0
  %40 = load i32, ptr %13, align 4
  %41 = zext i32 %40 to i64
  %42 = getelementptr inbounds [33 x i64], ptr %39, i64 0, i64 %41
  %43 = load i64, ptr %42, align 8
  %44 = load ptr, ptr %12, align 8
  %45 = getelementptr inbounds %struct.H5D_bt2_ctx_t, ptr %44, i32 0, i32 4
  %46 = load ptr, ptr %45, align 8
  %47 = load i32, ptr %13, align 4
  %48 = zext i32 %47 to i64
  %49 = getelementptr inbounds i32, ptr %46, i64 %48
  %50 = load i32, ptr %49, align 4
  %51 = zext i32 %50 to i64
  %52 = mul i64 %43, %51
  %53 = call i32 (ptr, ptr, ...) @fprintf(ptr noundef %34, ptr noundef @.str.12, ptr noundef %37, i64 noundef %52) #5
  br label %54

54:                                               ; preds = %33
  %55 = load i32, ptr %13, align 4
  %56 = add i32 %55, 1
  store i32 %56, ptr %13, align 4
  br label %27

57:                                               ; preds = %27
  %58 = load ptr, ptr %6, align 8
  %59 = call i32 @fputs(ptr noundef @.str.14, ptr noundef %58)
  ret i32 0
}