; Function Attrs: nofree nounwind uwtable
define internal noundef i32 @H5D__bt2_unfilt_debug(ptr nocapture noundef %0, i32 noundef %1, i32 noundef %2, ptr nocapture noundef readonly %3, ptr nocapture noundef readonly %4) #5 {
  %6 = getelementptr inbounds i8, ptr %3, i64 272
  %7 = load i64, ptr %6, align 8
  %8 = tail call i32 (ptr, ptr, ...) @fprintf(ptr noundef %0, ptr noundef nonnull @.str.7, i32 noundef %1, ptr noundef nonnull @.str.8, i32 noundef %2, ptr noundef nonnull @.str.9, i64 noundef %7) #14
  %9 = tail call i32 (ptr, ptr, ...) @fprintf(ptr noundef %0, ptr noundef nonnull @.str.10, i32 noundef %1, ptr noundef nonnull @.str.8, i32 noundef %2, ptr noundef nonnull @.str.11) #14
  %10 = getelementptr inbounds i8, ptr %4, i64 24
  %11 = load i32, ptr %10, align 8
  %.not19 = icmp eq i32 %11, 0
  br i1 %.not19, label %._crit_edge, label %.lr.ph

.lr.ph:                                           ; preds = %5
  %12 = getelementptr inbounds i8, ptr %4, i64 32
  br label %13

13:                                               ; preds = %.lr.ph, %13
  %indvars.iv = phi i64 [ 0, %.lr.ph ], [ %indvars.iv.next, %13 ]
  %.not = icmp eq i64 %indvars.iv, 0
  %14 = select i1 %.not, ptr @.str.8, ptr @.str.13
  %15 = getelementptr inbounds [33 x i64], ptr %3, i64 0, i64 %indvars.iv
  %16 = load i64, ptr %15, align 8
  %17 = load ptr, ptr %12, align 8
  %18 = getelementptr inbounds i32, ptr %17, i64 %indvars.iv
  %19 = load i32, ptr %18, align 4
  %20 = zext i32 %19 to i64
  %21 = mul i64 %16, %20
  %22 = tail call i32 (ptr, ptr, ...) @fprintf(ptr noundef %0, ptr noundef nonnull @.str.12, ptr noundef nonnull %14, i64 noundef %21) #14
  %indvars.iv.next = add nuw nsw i64 %indvars.iv, 1
  %23 = load i32, ptr %10, align 8
  %24 = zext i32 %23 to i64
  %25 = icmp ult i64 %indvars.iv.next, %24
  br i1 %25, label %13, label %._crit_edge

._crit_edge:                                      ; preds = %13, %5
  %26 = tail call i64 @fwrite(ptr nonnull @.str.14, i64 2, i64 1, ptr %0)
  ret i32 0
}